; Function Attrs: mustprogress nofree norecurse nosync nounwind willreturn memory(argmem: readwrite) uwtable
define noundef nonnull align 8 dereferenceable(8) ptr @_ZN6icu_778Collator14setMaxVariableE15UColReorderCodeR10UErrorCode(ptr noundef nonnull readnone returned align 8 dereferenceable(8) %0, i32 %1, ptr noundef nonnull align 4 captures(none) dereferenceable(4) %2) unnamed_addr #8 align 2 {
  %4 = load i32, ptr %2, align 4, !tbaa !6
  %5 = icmp sgt i32 %4, 0
  br i1 %5, label %7, label %6

6:                                                ; preds = %3
  store i32 16, ptr %2, align 4, !tbaa !6
  br label %7

7:                                                ; preds = %6, %3
  ret ptr %0
}